target datalayout = "e-m:e-p270:32:32-p271:32:32-p272:64:64-i64:64-i128:128-f80:128-n8:16:32:64-S128"
target triple = "x86_64-pc-linux-gnu"

%"class.std::function" = type { %"class.std::_Function_base", ptr }
%"class.std::_Function_base" = type { %"union.std::_Any_data", ptr }
%"union.std::_Any_data" = type { %"union.std::_Nocopy_types" }
%"union.std::_Nocopy_types" = type { { i64, i64 } }
%"class.neuralnetworkCV::denseLayer" = type { i64, i64, %"class.std::function", %"class.std::function", %"class.std::vector", %"class.std::vector.37" }
%"class.std::vector" = type { %"struct.std::_Vector_base" }
%"struct.std::_Vector_base" = type { %"struct.std::_Vector_base<std::vector<double>, std::allocator<std::vector<double>>>::_Vector_impl" }
%"struct.std::_Vector_base<std::vector<double>, std::allocator<std::vector<double>>>::_Vector_impl" = type { %"struct.std::_Vector_base<std::vector<double>, std::allocator<std::vector<double>>>::_Vector_impl_data" }
%"struct.std::_Vector_base<std::vector<double>, std::allocator<std::vector<double>>>::_Vector_impl_data" = type { ptr, ptr, ptr }
%"class.std::vector.37" = type { %"struct.std::_Vector_base.38" }
%"struct.std::_Vector_base.38" = type { %"struct.std::_Vector_base<double, std::allocator<double>>::_Vector_impl" }
%"struct.std::_Vector_base<double, std::allocator<double>>::_Vector_impl" = type { %"struct.std::_Vector_base<double, std::allocator<double>>::_Vector_impl_data" }
%"struct.std::_Vector_base<double, std::allocator<double>>::_Vector_impl_data" = type { ptr, ptr, ptr }

; Function Attrs: mustprogress nounwind uwtable
define linkonce_odr noundef zeroext i1 @_ZNKSt14_Function_base8_M_emptyEv(ptr noundef nonnull align 8 dereferenceable(24) %0) #5 comdat align 2 {
  %2 = alloca ptr, align 8
  store ptr %0, ptr %2, align 8, !tbaa !54
  %3 = load ptr, ptr %2, align 8
  %4 = getelementptr inbounds nuw %"class.std::_Function_base", ptr %3, i32 0, i32 1
  %5 = load ptr, ptr %4, align 8, !tbaa !53
  %6 = icmp ne ptr %5, null
  %7 = xor i1 %6, true
  ret i1 %7
}

; Function Attrs: mustprogress uwtable
define linkonce_odr noundef double @_ZNKSt8functionIFddEEclEd(ptr noundef nonnull align 8 dereferenceable(32) %0, double noundef %1) #6 comdat align 2 {
  %3 = alloca ptr, align 8
  %4 = alloca double, align 8
  store ptr %0, ptr %3, align 8, !tbaa !48
  store double %1, ptr %4, align 8, !tbaa !64
  %5 = load ptr, ptr %3, align 8
  %6 = call noundef zeroext i1 @_ZNKSt14_Function_base8_M_emptyEv(ptr noundef nonnull align 8 dereferenceable(24) %5)
  br i1 %6, label %7, label %8

7:                                                ; preds = %2
  call void @_ZSt25__throw_bad_function_callv() #20
  unreachable

8:                                                ; preds = %2
  %9 = getelementptr inbounds nuw %"class.std::function", ptr %5, i32 0, i32 1
  %10 = load ptr, ptr %9, align 8, !tbaa !50
  %11 = getelementptr inbounds nuw %"class.std::_Function_base", ptr %5, i32 0, i32 0
  %12 = call noundef double %10(ptr noundef nonnull align 8 dereferenceable(16) %11, ptr noundef nonnull align 8 dereferenceable(8) %4)
  ret double %12
}

; Function Attrs: mustprogress nounwind uwtable
define linkonce_odr noundef nonnull align 8 dereferenceable(24) ptr @_ZNKSt6vectorIS_IdSaIdEESaIS1_EEixEm(ptr noundef nonnull align 8 dereferenceable(24) %0, i64 noundef %1) #5 comdat align 2 {
  %3 = alloca ptr, align 8
  %4 = alloca i64, align 8
  store ptr %0, ptr %3, align 8, !tbaa !138
  store i64 %1, ptr %4, align 8, !tbaa !36
  %5 = load ptr, ptr %3, align 8
  %6 = getelementptr inbounds nuw %"struct.std::_Vector_base", ptr %5, i32 0, i32 0
  %7 = getelementptr inbounds nuw %"struct.std::_Vector_base<std::vector<double>, std::allocator<std::vector<double>>>::_Vector_impl_data", ptr %6, i32 0, i32 0
  %8 = load ptr, ptr %7, align 8, !tbaa !164
  %9 = load i64, ptr %4, align 8, !tbaa !36
  %10 = getelementptr inbounds nuw %"class.std::vector.37", ptr %8, i64 %9
  ret ptr %10
}

; Function Attrs: mustprogress nounwind uwtable
define linkonce_odr noundef nonnull align 8 dereferenceable(8) ptr @_ZNKSt6vectorIdSaIdEEixEm(ptr noundef nonnull align 8 dereferenceable(24) %0, i64 noundef %1) #5 comdat align 2 {
  %3 = alloca ptr, align 8
  %4 = alloca i64, align 8
  store ptr %0, ptr %3, align 8, !tbaa !140
  store i64 %1, ptr %4, align 8, !tbaa !36
  %5 = load ptr, ptr %3, align 8
  %6 = getelementptr inbounds nuw %"struct.std::_Vector_base.38", ptr %5, i32 0, i32 0
  %7 = getelementptr inbounds nuw %"struct.std::_Vector_base<double, std::allocator<double>>::_Vector_impl_data", ptr %6, i32 0, i32 0
  %8 = load ptr, ptr %7, align 8, !tbaa !162
  %9 = load i64, ptr %4, align 8, !tbaa !36
  %10 = getelementptr inbounds nuw double, ptr %8, i64 %9
  ret ptr %10
}

; Function Attrs: mustprogress nounwind uwtable
define linkonce_odr noundef nonnull align 8 dereferenceable(8) ptr @_ZNSt6vectorIdSaIdEEixEm(ptr noundef nonnull align 8 dereferenceable(24) %0, i64 noundef %1) #5 comdat align 2 {
  %3 = alloca ptr, align 8
  %4 = alloca i64, align 8
  store ptr %0, ptr %3, align 8, !tbaa !140
  store i64 %1, ptr %4, align 8, !tbaa !36
  %5 = load ptr, ptr %3, align 8
  %6 = getelementptr inbounds nuw %"struct.std::_Vector_base.38", ptr %5, i32 0, i32 0
  %7 = getelementptr inbounds nuw %"struct.std::_Vector_base<double, std::allocator<double>>::_Vector_impl_data", ptr %6, i32 0, i32 0
  %8 = load ptr, ptr %7, align 8, !tbaa !162
  %9 = load i64, ptr %4, align 8, !tbaa !36
  %10 = getelementptr inbounds nuw double, ptr %8, i64 %9
  ret ptr %10
}

; Function Attrs: mustprogress nounwind uwtable
define linkonce_odr noundef nonnull align 8 dereferenceable(24) ptr @_ZNSt6vectorIS_IdSaIdEESaIS1_EEixEm(ptr noundef nonnull align 8 dereferenceable(24) %0, i64 noundef %1) #5 comdat align 2 {
  %3 = alloca ptr, align 8
  %4 = alloca i64, align 8
  store ptr %0, ptr %3, align 8, !tbaa !138
  store i64 %1, ptr %4, align 8, !tbaa !36
  %5 = load ptr, ptr %3, align 8
  %6 = getelementptr inbounds nuw %"struct.std::_Vector_base", ptr %5, i32 0, i32 0
  %7 = getelementptr inbounds nuw %"struct.std::_Vector_base<std::vector<double>, std::allocator<std::vector<double>>>::_Vector_impl_data", ptr %6, i32 0, i32 0
  %8 = load ptr, ptr %7, align 8, !tbaa !164
  %9 = load i64, ptr %4, align 8, !tbaa !36
  %10 = getelementptr inbounds nuw %"class.std::vector.37", ptr %8, i64 %9
  ret ptr %10
}

; Function Attrs: mustprogress uwtable
define noundef double @_ZNK15neuralnetworkCV10denseLayer22computeGradientElementERKSt6vectorIdSaIdEEmm(ptr noundef nonnull align 8 dereferenceable(128) %0, ptr noundef nonnull align 8 dereferenceable(24) %1, i64 noundef %2, i64 noundef %3) #6 align 2 {
  %5 = alloca ptr, align 8
  %6 = alloca ptr, align 8
  %7 = alloca i64, align 8
  %8 = alloca i64, align 8
  %9 = alloca double, align 8
  %10 = alloca i64, align 8
  %11 = alloca double, align 8
  store ptr %0, ptr %5, align 8, !tbaa !136
  store ptr %1, ptr %6, align 8, !tbaa !140
  store i64 %2, ptr %7, align 8, !tbaa !36
  store i64 %3, ptr %8, align 8, !tbaa !36
  %12 = load ptr, ptr %5, align 8
  call void @llvm.lifetime.start.p0(i64 8, ptr %9) #3
  store double 0.000000e+00, ptr %9, align 8, !tbaa !64
  call void @llvm.lifetime.start.p0(i64 8, ptr %10) #3
  store i64 0, ptr %10, align 8, !tbaa !36
  br label %13

13:                                               ; preds = %32, %4
  %14 = load i64, ptr %10, align 8, !tbaa !36
  %15 = getelementptr inbounds nuw %"class.neuralnetworkCV::denseLayer", ptr %12, i32 0, i32 0
  %16 = load i64, ptr %15, align 8, !tbaa !151
  %17 = icmp ult i64 %14, %16
  br i1 %17, label %19, label %18

18:                                               ; preds = %13
  call void @llvm.lifetime.end.p0(i64 8, ptr %10) #3
  br label %35

19:                                               ; preds = %13
  %20 = load ptr, ptr %6, align 8, !tbaa !140
  %21 = load i64, ptr %10, align 8, !tbaa !36
  %22 = call noundef nonnull align 8 dereferenceable(8) ptr @_ZNKSt6vectorIdSaIdEEixEm(ptr noundef nonnull align 8 dereferenceable(24) %20, i64 noundef %21) #3
  %23 = load double, ptr %22, align 8, !tbaa !64
  %24 = getelementptr inbounds nuw %"class.neuralnetworkCV::denseLayer", ptr %12, i32 0, i32 4
  %25 = load i64, ptr %7, align 8, !tbaa !36
  %26 = call noundef nonnull align 8 dereferenceable(24) ptr @_ZNKSt6vectorIS_IdSaIdEESaIS1_EEixEm(ptr noundef nonnull align 8 dereferenceable(24) %24, i64 noundef %25) #3
  %27 = load i64, ptr %10, align 8, !tbaa !36
  %28 = call noundef nonnull align 8 dereferenceable(8) ptr @_ZNKSt6vectorIdSaIdEEixEm(ptr noundef nonnull align 8 dereferenceable(24) %26, i64 noundef %27) #3
  %29 = load double, ptr %28, align 8, !tbaa !64
  %30 = load double, ptr %9, align 8, !tbaa !64
  %31 = call double @llvm.fmuladd.f64(double %23, double %29, double %30)
  store double %31, ptr %9, align 8, !tbaa !64
  br label %32

32:                                               ; preds = %19
  %33 = load i64, ptr %10, align 8, !tbaa !36
  %34 = add i64 %33, 1
  store i64 %34, ptr %10, align 8, !tbaa !36
  br label %13, !llvm.loop !257

35:                                               ; preds = %18
  %36 = getelementptr inbounds nuw %"class.neuralnetworkCV::denseLayer", ptr %12, i32 0, i32 5
  %37 = load i64, ptr %7, align 8, !tbaa !36
  %38 = call noundef nonnull align 8 dereferenceable(8) ptr @_ZNKSt6vectorIdSaIdEEixEm(ptr noundef nonnull align 8 dereferenceable(24) %36, i64 noundef %37) #3
  %39 = load double, ptr %38, align 8, !tbaa !64
  %40 = load double, ptr %9, align 8, !tbaa !64
  %41 = fadd double %40, %39
  store double %41, ptr %9, align 8, !tbaa !64
  call void @llvm.lifetime.start.p0(i64 8, ptr %11) #3
  %42 = getelementptr inbounds nuw %"class.neuralnetworkCV::denseLayer", ptr %12, i32 0, i32 3
  %43 = load double, ptr %9, align 8, !tbaa !64
  %44 = call noundef double @_ZNKSt8functionIFddEEclEd(ptr noundef nonnull align 8 dereferenceable(32) %42, double noundef %43)
  %45 = getelementptr inbounds nuw %"class.neuralnetworkCV::denseLayer", ptr %12, i32 0, i32 4
  %46 = load i64, ptr %7, align 8, !tbaa !36
  %47 = call noundef nonnull align 8 dereferenceable(24) ptr @_ZNKSt6vectorIS_IdSaIdEESaIS1_EEixEm(ptr noundef nonnull align 8 dereferenceable(24) %45, i64 noundef %46) #3
  %48 = load i64, ptr %8, align 8, !tbaa !36
  %49 = call noundef nonnull align 8 dereferenceable(8) ptr @_ZNKSt6vectorIdSaIdEEixEm(ptr noundef nonnull align 8 dereferenceable(24) %47, i64 noundef %48) #3
  %50 = load double, ptr %49, align 8, !tbaa !64
  %51 = fmul double %44, %50
  store double %51, ptr %11, align 8, !tbaa !64
  %52 = load double, ptr %11, align 8, !tbaa !64
  call void @llvm.lifetime.end.p0(i64 8, ptr %11) #3
  call void @llvm.lifetime.end.p0(i64 8, ptr %9) #3
  ret double %52
}

; Function Attrs: mustprogress uwtable
define void @_ZNK15neuralnetworkCV10denseLayer15computeGradientERKSt6vectorIdSaIdEERS1_IS3_SaIS3_EE(ptr noundef nonnull align 8 dereferenceable(128) %0, ptr noundef nonnull align 8 dereferenceable(24) %1, ptr noundef nonnull align 8 dereferenceable(24) %2) #6 align 2 {
  %4 = alloca ptr, align 8
  %5 = alloca ptr, align 8
  %6 = alloca ptr, align 8
  %7 = alloca i64, align 8
  %8 = alloca i32, align 4
  %9 = alloca i64, align 8
  store ptr %0, ptr %4, align 8, !tbaa !136
  store ptr %1, ptr %5, align 8, !tbaa !140
  store ptr %2, ptr %6, align 8, !tbaa !138
  %10 = load ptr, ptr %4, align 8
  call void @llvm.lifetime.start.p0(i64 8, ptr %7) #3
  store i64 0, ptr %7, align 8, !tbaa !36
  br label %11

11:                                               ; preds = %38, %3
  %12 = load i64, ptr %7, align 8, !tbaa !36
  %13 = getelementptr inbounds nuw %"class.neuralnetworkCV::denseLayer", ptr %10, i32 0, i32 0
  %14 = load i64, ptr %13, align 8, !tbaa !151
  %15 = icmp ult i64 %12, %14
  br i1 %15, label %17, label %16

16:                                               ; preds = %11
  store i32 2, ptr %8, align 4
  call void @llvm.lifetime.end.p0(i64 8, ptr %7) #3
  br label %41

17:                                               ; preds = %11
  call void @llvm.lifetime.start.p0(i64 8, ptr %9) #3
  store i64 0, ptr %9, align 8, !tbaa !36
  br label %18

18:                                               ; preds = %34, %17
  %19 = load i64, ptr %9, align 8, !tbaa !36
  %20 = getelementptr inbounds nuw %"class.neuralnetworkCV::denseLayer", ptr %10, i32 0, i32 1
  %21 = load i64, ptr %20, align 8, !tbaa !161
  %22 = icmp ult i64 %19, %21
  br i1 %22, label %24, label %23

23:                                               ; preds = %18
  store i32 5, ptr %8, align 4
  call void @llvm.lifetime.end.p0(i64 8, ptr %9) #3
  br label %37

24:                                               ; preds = %18
  %25 = load ptr, ptr %5, align 8, !tbaa !140
  %26 = load i64, ptr %9, align 8, !tbaa !36
  %27 = load i64, ptr %7, align 8, !tbaa !36
  %28 = call noundef double @_ZNK15neuralnetworkCV10denseLayer22computeGradientElementERKSt6vectorIdSaIdEEmm(ptr noundef nonnull align 8 dereferenceable(128) %10, ptr noundef nonnull align 8 dereferenceable(24) %25, i64 noundef %26, i64 noundef %27)
  %29 = load ptr, ptr %6, align 8, !tbaa !138
  %30 = load i64, ptr %9, align 8, !tbaa !36
  %31 = call noundef nonnull align 8 dereferenceable(24) ptr @_ZNSt6vectorIS_IdSaIdEESaIS1_EEixEm(ptr noundef nonnull align 8 dereferenceable(24) %29, i64 noundef %30) #3
  %32 = load i64, ptr %7, align 8, !tbaa !36
  %33 = call noundef nonnull align 8 dereferenceable(8) ptr @_ZNSt6vectorIdSaIdEEixEm(ptr noundef nonnull align 8 dereferenceable(24) %31, i64 noundef %32) #3
  store double %28, ptr %33, align 8, !tbaa !64
  br label %34

34:                                               ; preds = %24
  %35 = load i64, ptr %9, align 8, !tbaa !36
  %36 = add i64 %35, 1
  store i64 %36, ptr %9, align 8, !tbaa !36
  br label %18, !llvm.loop !258

37:                                               ; preds = %23
  br label %38

38:                                               ; preds = %37
  %39 = load i64, ptr %7, align 8, !tbaa !36
  %40 = add i64 %39, 1
  store i64 %40, ptr %7, align 8, !tbaa !36
  br label %11, !llvm.loop !259

41:                                               ; preds = %16
  ret void
}