; Function Attrs: mustprogress uwtable
define void @_ZNK15neuralnetworkCV10denseLayer15computeGradientERKSt6vectorIdSaIdEERS1_IS3_SaIS3_EE(ptr noundef nonnull align 8 dereferenceable(128) %0, ptr noundef nonnull readonly align 8 captures(none) dereferenceable(24) %1, ptr noundef nonnull readonly align 8 captures(none) dereferenceable(24) %2) local_unnamed_addr #16 align 2 {
  %4 = alloca double, align 8
  %5 = load i64, ptr %0, align 8, !tbaa !91
  %.not = icmp eq i64 %5, 0
  br i1 %.not, label %._crit_edge13, label %.preheader.lr.ph

.preheader.lr.ph:                                 ; preds = %3
  %6 = getelementptr inbounds nuw i8, ptr %0, i64 8
  %7 = getelementptr inbounds nuw i8, ptr %0, i64 80
  %8 = getelementptr inbounds nuw i8, ptr %0, i64 104
  %9 = getelementptr inbounds nuw i8, ptr %0, i64 64
  %10 = getelementptr inbounds nuw i8, ptr %0, i64 48
  %11 = getelementptr inbounds nuw i8, ptr %0, i64 72
  %12 = load i64, ptr %6, align 8, !tbaa !99
  %.not14 = icmp eq i64 %12, 0
  br i1 %.not14, label %._crit_edge13, label %.preheader

.preheader:                                       ; preds = %.preheader.lr.ph, %._crit_edge
  %13 = phi i64 [ %15, %._crit_edge ], [ %5, %.preheader.lr.ph ]
  %14 = phi i64 [ %16, %._crit_edge ], [ 1, %.preheader.lr.ph ]
  %.01012 = phi i64 [ %17, %._crit_edge ], [ 0, %.preheader.lr.ph ]
  %.not15 = icmp eq i64 %14, 0
  br i1 %.not15, label %._crit_edge, label %.lr.ph

._crit_edge13:                                    ; preds = %._crit_edge, %.preheader.lr.ph, %3
  ret void

._crit_edge.loopexit:                             ; preds = %_ZNK15neuralnetworkCV10denseLayer22computeGradientElementERKSt6vectorIdSaIdEEmm.exit
  %.pre = load i64, ptr %0, align 8, !tbaa !91
  br label %._crit_edge

._crit_edge:                                      ; preds = %._crit_edge.loopexit, %.preheader
  %15 = phi i64 [ %.pre, %._crit_edge.loopexit ], [ %13, %.preheader ]
  %16 = phi i64 [ %50, %._crit_edge.loopexit ], [ 0, %.preheader ]
  %17 = add nuw i64 %.01012, 1
  %18 = icmp ult i64 %17, %15
  br i1 %18, label %.preheader, label %._crit_edge13, !llvm.loop !115

.lr.ph:                                           ; preds = %.preheader, %_ZNK15neuralnetworkCV10denseLayer22computeGradientElementERKSt6vectorIdSaIdEEmm.exit
  %.011 = phi i64 [ %49, %_ZNK15neuralnetworkCV10denseLayer22computeGradientElementERKSt6vectorIdSaIdEEmm.exit ], [ 0, %.preheader ]
  %19 = load i64, ptr %0, align 8, !tbaa !91
  %.not.i = icmp eq i64 %19, 0
  br i1 %.not.i, label %._crit_edge.i, label %.lr.ph.i

.lr.ph.i:                                         ; preds = %.lr.ph
  %20 = load ptr, ptr %1, align 8, !tbaa !41
  %21 = load ptr, ptr %7, align 8, !tbaa !45
  %22 = getelementptr inbounds nuw %"class.std::vector.37", ptr %21, i64 %.011
  %23 = load ptr, ptr %22, align 8, !tbaa !41
  br label %30

._crit_edge.i:                                    ; preds = %30, %.lr.ph
  %.0.lcssa.i = phi double [ 0.000000e+00, %.lr.ph ], [ %35, %30 ]
  %24 = load ptr, ptr %8, align 8, !tbaa !41
  %25 = getelementptr inbounds nuw double, ptr %24, i64 %.011
  %26 = load double, ptr %25, align 8, !tbaa !21
  %27 = fadd double %.0.lcssa.i, %26
  call void @llvm.lifetime.start.p0(i64 8, ptr nonnull %4)
  store double %27, ptr %4, align 8, !tbaa !21
  %28 = load ptr, ptr %9, align 8, !tbaa !4
  %.not.i.i.i = icmp eq ptr %28, null
  br i1 %.not.i.i.i, label %29, label %_ZNK15neuralnetworkCV10denseLayer22computeGradientElementERKSt6vectorIdSaIdEEmm.exit

29:                                               ; preds = %._crit_edge.i
  call void @_ZSt25__throw_bad_function_callv() #35
  unreachable

30:                                               ; preds = %30, %.lr.ph.i
  %.015.i = phi double [ 0.000000e+00, %.lr.ph.i ], [ %35, %30 ]
  %.01314.i = phi i64 [ 0, %.lr.ph.i ], [ %36, %30 ]
  %31 = getelementptr inbounds nuw double, ptr %20, i64 %.01314.i
  %32 = load double, ptr %31, align 8, !tbaa !21
  %33 = getelementptr inbounds nuw double, ptr %23, i64 %.01314.i
  %34 = load double, ptr %33, align 8, !tbaa !21
  %35 = call double @llvm.fmuladd.f64(double %32, double %34, double %.015.i)
  %36 = add nuw i64 %.01314.i, 1
  %exitcond.not.i = icmp eq i64 %36, %19
  br i1 %exitcond.not.i, label %._crit_edge.i, label %30, !llvm.loop !114

_ZNK15neuralnetworkCV10denseLayer22computeGradientElementERKSt6vectorIdSaIdEEmm.exit: ; preds = %._crit_edge.i
  %37 = load ptr, ptr %11, align 8, !tbaa !26
  %38 = call noundef double %37(ptr noundef nonnull align 8 dereferenceable(32) %10, ptr noundef nonnull align 8 dereferenceable(8) %4)
  call void @llvm.lifetime.end.p0(i64 8, ptr nonnull %4)
  %39 = load ptr, ptr %7, align 8, !tbaa !45
  %40 = getelementptr inbounds nuw %"class.std::vector.37", ptr %39, i64 %.011
  %41 = load ptr, ptr %40, align 8, !tbaa !41
  %42 = getelementptr inbounds nuw double, ptr %41, i64 %.01012
  %43 = load double, ptr %42, align 8, !tbaa !21
  %44 = fmul double %38, %43
  %45 = load ptr, ptr %2, align 8, !tbaa !45
  %46 = getelementptr inbounds nuw %"class.std::vector.37", ptr %45, i64 %.011
  %47 = load ptr, ptr %46, align 8, !tbaa !41
  %48 = getelementptr inbounds nuw double, ptr %47, i64 %.01012
  store double %44, ptr %48, align 8, !tbaa !21
  %49 = add nuw i64 %.011, 1
  %50 = load i64, ptr %6, align 8, !tbaa !99
  %51 = icmp ult i64 %49, %50
  br i1 %51, label %.lr.ph, label %._crit_edge.loopexit, !llvm.loop !117
}